target datalayout = "e-m:e-p270:32:32-p271:32:32-p272:64:64-i64:64-i128:128-f80:128-n8:16:32:64-S128"
target triple = "x86_64-pc-linux-gnu"

%struct.PJconsts = type { ptr, ptr, ptr, ptr, ptr, ptr, ptr, ptr, ptr, ptr, ptr, ptr, i32, ptr, ptr, ptr, ptr, ptr, ptr, ptr, ptr, double, double, double, double, double, double, double, double, double, double, double, double, double, double, double, double, double, double, double, double, double, double, i32, i32, i32, i32, i32, i32, i32, i32, i32, i32, i32, ptr, ptr, ptr, ptr, ptr, ptr, double, double, double, double, double, double, double, double, double, double, double, i32, [7 x double], i32, ptr, ptr, double, double, i32, [4 x i8], %"class.std::shared_ptr", i8, double, i8, %"class.std::__cxx11::basic_string", %"class.std::__cxx11::basic_string", %"class.std::__cxx11::basic_string", i8, %"class.std::vector", i32, %"class.std::vector.3", i32, i8, i8, i8, ptr }
%"class.std::shared_ptr" = type { %"class.std::__shared_ptr" }
%"class.std::__shared_ptr" = type { ptr, %"class.std::__shared_count" }
%"class.std::__shared_count" = type { ptr }
%"class.std::__cxx11::basic_string" = type { %"struct.std::__cxx11::basic_string<char>::_Alloc_hider", i64, %union.anon }
%"struct.std::__cxx11::basic_string<char>::_Alloc_hider" = type { ptr }
%union.anon = type { i64, [8 x i8] }
%"class.std::vector" = type { %"struct.std::_Vector_base" }
%"struct.std::_Vector_base" = type { %"struct.std::_Vector_base<osgeo::proj::operation::GridDescription, std::allocator<osgeo::proj::operation::GridDescription>>::_Vector_impl" }
%"struct.std::_Vector_base<osgeo::proj::operation::GridDescription, std::allocator<osgeo::proj::operation::GridDescription>>::_Vector_impl" = type { %"struct.std::_Vector_base<osgeo::proj::operation::GridDescription, std::allocator<osgeo::proj::operation::GridDescription>>::_Vector_impl_data" }
%"struct.std::_Vector_base<osgeo::proj::operation::GridDescription, std::allocator<osgeo::proj::operation::GridDescription>>::_Vector_impl_data" = type { ptr, ptr, ptr }
%"class.std::vector.3" = type { %"struct.std::_Vector_base.4" }
%"struct.std::_Vector_base.4" = type { %"struct.std::_Vector_base<PJCoordOperation, std::allocator<PJCoordOperation>>::_Vector_impl" }
%"struct.std::_Vector_base<PJCoordOperation, std::allocator<PJCoordOperation>>::_Vector_impl" = type { %"struct.std::_Vector_base<PJCoordOperation, std::allocator<PJCoordOperation>>::_Vector_impl_data" }
%"struct.std::_Vector_base<PJCoordOperation, std::allocator<PJCoordOperation>>::_Vector_impl_data" = type { ptr, ptr, ptr }
%"struct.(anonymous namespace)::pj_opaque_molodensky" = type { double, double, double, double, double, i32 }
%struct.PJ_XYZ = type { double, double, double }
%struct.PJ_LPZ = type { double, double, double }
%union.PJ_COORD = type { [4 x double] }
%struct.PJ_XY = type { double, double }
%struct.PJ_LP = type { double, double }

; Function Attrs: mustprogress uwtable
define internal void @_ZL24pj_molodensky_reverse_3d6PJ_XYZP8PJconsts(ptr dead_on_unwind noalias writable sret(%struct.PJ_LPZ) align 8 %0, ptr noundef byval(%struct.PJ_XYZ) align 8 %1, ptr noundef %2) #0 {
  %4 = alloca ptr, align 8
  %5 = alloca ptr, align 8
  %6 = alloca %union.PJ_COORD, align 8
  %7 = alloca %struct.PJ_LPZ, align 8
  %8 = alloca %struct.PJ_LPZ, align 8
  %9 = alloca %struct.PJ_LPZ, align 8
  %10 = alloca %struct.PJ_LPZ, align 8
  %11 = alloca %struct.PJ_LPZ, align 8
  %12 = alloca %union.PJ_COORD, align 8
  %13 = alloca i32, align 4
  store ptr %2, ptr %4, align 8, !tbaa !3
  call void @llvm.lifetime.start.p0(i64 8, ptr %5) #9
  %14 = load ptr, ptr %4, align 8, !tbaa !3
  %15 = getelementptr inbounds nuw %struct.PJconsts, ptr %14, i32 0, i32 11
  %16 = load ptr, ptr %15, align 8, !tbaa !43
  store ptr %16, ptr %5, align 8, !tbaa !41
  call void @llvm.lifetime.start.p0(i64 32, ptr %6) #9
  call void @llvm.memset.p0.i64(ptr align 8 %6, i8 0, i64 32, i1 false)
  call void @llvm.lifetime.start.p0(i64 24, ptr %7) #9
  call void @llvm.memcpy.p0.p0.i64(ptr align 8 %6, ptr align 8 %1, i64 24, i1 false), !tbaa.struct !62
  %17 = load ptr, ptr %5, align 8, !tbaa !41
  %18 = getelementptr inbounds nuw %"struct.(anonymous namespace)::pj_opaque_molodensky", ptr %17, i32 0, i32 5
  %19 = load i32, ptr %18, align 8, !tbaa !59
  %20 = icmp ne i32 %19, 0
  br i1 %20, label %21, label %23

21:                                               ; preds = %3
  call void @llvm.lifetime.start.p0(i64 24, ptr %8) #9
  call void @llvm.memcpy.p0.p0.i64(ptr align 8 %9, ptr align 8 %6, i64 24, i1 false), !tbaa.struct !62
  %22 = load ptr, ptr %4, align 8, !tbaa !3
  call void @_ZL20calc_abridged_params6PJ_LPZP8PJconsts(ptr dead_on_unwind writable sret(%struct.PJ_LPZ) align 8 %8, ptr noundef byval(%struct.PJ_LPZ) align 8 %9, ptr noundef %22)
  call void @llvm.memcpy.p0.p0.i64(ptr align 8 %7, ptr align 8 %8, i64 24, i1 false), !tbaa.struct !62
  call void @llvm.lifetime.end.p0(i64 24, ptr %8) #9
  br label %25

23:                                               ; preds = %3
  call void @llvm.lifetime.start.p0(i64 24, ptr %10) #9
  call void @llvm.memcpy.p0.p0.i64(ptr align 8 %11, ptr align 8 %6, i64 24, i1 false), !tbaa.struct !62
  %24 = load ptr, ptr %4, align 8, !tbaa !3
  call void @_ZL20calc_standard_params6PJ_LPZP8PJconsts(ptr dead_on_unwind writable sret(%struct.PJ_LPZ) align 8 %10, ptr noundef byval(%struct.PJ_LPZ) align 8 %11, ptr noundef %24)
  call void @llvm.memcpy.p0.p0.i64(ptr align 8 %7, ptr align 8 %10, i64 24, i1 false), !tbaa.struct !62
  call void @llvm.lifetime.end.p0(i64 24, ptr %10) #9
  br label %25

25:                                               ; preds = %23, %21
  %26 = getelementptr inbounds nuw %struct.PJ_LPZ, ptr %7, i32 0, i32 0
  %27 = load double, ptr %26, align 8, !tbaa !64
  %28 = fcmp oeq double %27, 0x7FF0000000000000
  br i1 %28, label %29, label %32

29:                                               ; preds = %25
  %30 = load ptr, ptr %4, align 8, !tbaa !3
  %31 = call i32 @proj_errno_set(ptr noundef %30, i32 noundef 2050)
  call void @llvm.lifetime.start.p0(i64 32, ptr %12) #9
  call void @_Z16proj_coord_errorv(ptr dead_on_unwind writable sret(%union.PJ_COORD) align 8 %12)
  call void @llvm.memcpy.p0.p0.i64(ptr align 8 %0, ptr align 8 %12, i64 24, i1 false), !tbaa.struct !62
  call void @llvm.lifetime.end.p0(i64 32, ptr %12) #9
  store i32 1, ptr %13, align 4
  br label %48

32:                                               ; preds = %25
  %33 = getelementptr inbounds nuw %struct.PJ_LPZ, ptr %7, i32 0, i32 1
  %34 = load double, ptr %33, align 8, !tbaa !66
  %35 = getelementptr inbounds nuw %struct.PJ_LPZ, ptr %6, i32 0, i32 1
  %36 = load double, ptr %35, align 8, !tbaa !52
  %37 = fsub double %36, %34
  store double %37, ptr %35, align 8, !tbaa !52
  %38 = getelementptr inbounds nuw %struct.PJ_LPZ, ptr %7, i32 0, i32 0
  %39 = load double, ptr %38, align 8, !tbaa !64
  %40 = getelementptr inbounds nuw %struct.PJ_LPZ, ptr %6, i32 0, i32 0
  %41 = load double, ptr %40, align 8, !tbaa !52
  %42 = fsub double %41, %39
  store double %42, ptr %40, align 8, !tbaa !52
  %43 = getelementptr inbounds nuw %struct.PJ_LPZ, ptr %7, i32 0, i32 2
  %44 = load double, ptr %43, align 8, !tbaa !67
  %45 = getelementptr inbounds nuw %struct.PJ_LPZ, ptr %6, i32 0, i32 2
  %46 = load double, ptr %45, align 8, !tbaa !52
  %47 = fsub double %46, %44
  store double %47, ptr %45, align 8, !tbaa !52
  call void @llvm.memcpy.p0.p0.i64(ptr align 8 %0, ptr align 8 %6, i64 24, i1 false), !tbaa.struct !62
  store i32 1, ptr %13, align 4
  br label %48

48:                                               ; preds = %32, %29
  call void @llvm.lifetime.end.p0(i64 24, ptr %7) #9
  call void @llvm.lifetime.end.p0(i64 32, ptr %6) #9
  call void @llvm.lifetime.end.p0(i64 8, ptr %5) #9
  ret void
}

; Function Attrs: mustprogress uwtable
define internal { double, double } @_ZL24pj_molodensky_reverse_2d5PJ_XYP8PJconsts(double %0, double %1, ptr noundef %2) #0 {
  %4 = alloca %struct.PJ_LP, align 8
  %5 = alloca %struct.PJ_XY, align 8
  %6 = alloca ptr, align 8
  %7 = alloca %union.PJ_COORD, align 8
  %8 = alloca %struct.PJ_LPZ, align 8
  %9 = alloca %struct.PJ_XYZ, align 8
  %10 = getelementptr inbounds nuw { double, double }, ptr %5, i32 0, i32 0
  store double %0, ptr %10, align 8
  %11 = getelementptr inbounds nuw { double, double }, ptr %5, i32 0, i32 1
  store double %1, ptr %11, align 8
  store ptr %2, ptr %6, align 8, !tbaa !3
  call void @llvm.lifetime.start.p0(i64 32, ptr %7) #9
  call void @llvm.memset.p0.i64(ptr align 8 %7, i8 0, i64 32, i1 false)
  call void @llvm.memcpy.p0.p0.i64(ptr align 8 %7, ptr align 8 %5, i64 16, i1 false), !tbaa.struct !68
  %12 = getelementptr inbounds nuw %struct.PJ_XYZ, ptr %7, i32 0, i32 2
  store double 0.000000e+00, ptr %12, align 8, !tbaa !52
  call void @llvm.lifetime.start.p0(i64 24, ptr %8) #9
  call void @llvm.memcpy.p0.p0.i64(ptr align 8 %9, ptr align 8 %7, i64 24, i1 false), !tbaa.struct !62
  %13 = load ptr, ptr %6, align 8, !tbaa !3
  call void @_ZL24pj_molodensky_reverse_3d6PJ_XYZP8PJconsts(ptr dead_on_unwind writable sret(%struct.PJ_LPZ) align 8 %8, ptr noundef byval(%struct.PJ_XYZ) align 8 %9, ptr noundef %13)
  call void @llvm.memcpy.p0.p0.i64(ptr align 8 %7, ptr align 8 %8, i64 24, i1 false), !tbaa.struct !62
  call void @llvm.memcpy.p0.p0.i64(ptr align 8 %4, ptr align 8 %7, i64 16, i1 false), !tbaa.struct !68
  call void @llvm.lifetime.end.p0(i64 24, ptr %8) #9
  call void @llvm.lifetime.end.p0(i64 32, ptr %7) #9
  %14 = load { double, double }, ptr %4, align 8
  ret { double, double } %14
}