; Function Attrs: mustprogress uwtable
define internal { double, double } @_ZL24pj_molodensky_reverse_2d5PJ_XYP8PJconsts(double %0, double %1, ptr noundef %2) #0 {
  %4 = alloca %struct.PJ_LPZ, align 8
  %5 = alloca %struct.PJ_LPZ, align 8
  %6 = alloca %struct.PJ_LPZ, align 8
  %7 = alloca %struct.PJ_LPZ, align 8
  %8 = alloca %union.PJ_COORD, align 8
  call void @llvm.lifetime.start.p0(i64 24, ptr nonnull %5)
  call void @llvm.lifetime.start.p0(i64 24, ptr nonnull %7)
  %9 = getelementptr inbounds nuw i8, ptr %2, i64 88
  %10 = load ptr, ptr %9, align 8, !tbaa !40, !noalias !71
  %11 = getelementptr inbounds nuw i8, ptr %10, i64 40
  %12 = load i32, ptr %11, align 8, !tbaa !55, !noalias !71
  %.not.i = icmp eq i32 %12, 0
  br i1 %.not.i, label %14, label %13

13:                                               ; preds = %3
  call void @llvm.lifetime.start.p0(i64 24, ptr nonnull %4) #9, !noalias !71
  store double %0, ptr %5, align 8, !tbaa !59, !noalias !71
  %.sroa.9.0..sroa_idx11.i = getelementptr inbounds nuw i8, ptr %5, i64 8
  store double %1, ptr %.sroa.9.0..sroa_idx11.i, align 8, !tbaa !59, !noalias !71
  %.sroa.11.0..sroa_idx17.i = getelementptr inbounds nuw i8, ptr %5, i64 16
  store double 0.000000e+00, ptr %.sroa.11.0..sroa_idx17.i, align 8, !tbaa !59, !noalias !71
  call fastcc void @_ZL20calc_abridged_params6PJ_LPZP8PJconsts(ptr dead_on_unwind noalias writable align 8 %4, ptr noundef nonnull byval(%struct.PJ_LPZ) align 8 %5, ptr noundef nonnull %2), !noalias !71
  %.sroa.0.0.copyload.i = load double, ptr %4, align 8, !tbaa !59, !noalias !71
  %.sroa.6.0..sroa_idx.i = getelementptr inbounds nuw i8, ptr %4, i64 8
  %.sroa.6.0.copyload.i = load double, ptr %.sroa.6.0..sroa_idx.i, align 8, !tbaa !59, !noalias !71
  call void @llvm.lifetime.end.p0(i64 24, ptr nonnull %4) #9, !noalias !71
  br label %15

14:                                               ; preds = %3
  call void @llvm.lifetime.start.p0(i64 24, ptr nonnull %6) #9, !noalias !71
  store double %0, ptr %7, align 8, !tbaa !59, !noalias !71
  %.sroa.9.0..sroa_idx13.i = getelementptr inbounds nuw i8, ptr %7, i64 8
  store double %1, ptr %.sroa.9.0..sroa_idx13.i, align 8, !tbaa !59, !noalias !71
  %.sroa.11.0..sroa_idx19.i = getelementptr inbounds nuw i8, ptr %7, i64 16
  store double 0.000000e+00, ptr %.sroa.11.0..sroa_idx19.i, align 8, !tbaa !59, !noalias !71
  call fastcc void @_ZL20calc_standard_params6PJ_LPZP8PJconsts(ptr dead_on_unwind noalias writable align 8 %6, ptr noundef nonnull byval(%struct.PJ_LPZ) align 8 %7, ptr noundef nonnull %2), !noalias !71
  %.sroa.0.0.copyload2.i = load double, ptr %6, align 8, !tbaa !59, !noalias !71
  %.sroa.6.0..sroa_idx3.i = getelementptr inbounds nuw i8, ptr %6, i64 8
  %.sroa.6.0.copyload4.i = load double, ptr %.sroa.6.0..sroa_idx3.i, align 8, !tbaa !59, !noalias !71
  call void @llvm.lifetime.end.p0(i64 24, ptr nonnull %6) #9, !noalias !71
  br label %15

15:                                               ; preds = %14, %13
  %.sroa.6.0.i = phi double [ %.sroa.6.0.copyload.i, %13 ], [ %.sroa.6.0.copyload4.i, %14 ]
  %.sroa.0.0.i = phi double [ %.sroa.0.0.copyload.i, %13 ], [ %.sroa.0.0.copyload2.i, %14 ]
  %16 = fcmp oeq double %.sroa.0.0.i, 0x7FF0000000000000
  br i1 %16, label %17, label %19

17:                                               ; preds = %15
  %18 = tail call i32 @proj_errno_set(ptr noundef nonnull %2, i32 noundef 2050), !noalias !71
  call void @llvm.lifetime.start.p0(i64 32, ptr nonnull %8) #9, !noalias !71
  call void @_Z16proj_coord_errorv(ptr dead_on_unwind nonnull writable sret(%union.PJ_COORD) align 8 %8), !noalias !71
  %.sroa.011.0.copyload = load double, ptr %8, align 8, !tbaa !59
  %.sroa.5.0..sroa_idx = getelementptr inbounds nuw i8, ptr %8, i64 8
  %.sroa.5.0.copyload = load double, ptr %.sroa.5.0..sroa_idx, align 8, !tbaa !59
  call void @llvm.lifetime.end.p0(i64 32, ptr nonnull %8) #9, !noalias !71
  br label %_ZL24pj_molodensky_reverse_3d6PJ_XYZP8PJconsts.exit

19:                                               ; preds = %15
  %20 = fsub double %1, %.sroa.6.0.i
  %21 = fsub double %0, %.sroa.0.0.i
  br label %_ZL24pj_molodensky_reverse_3d6PJ_XYZP8PJconsts.exit

_ZL24pj_molodensky_reverse_3d6PJ_XYZP8PJconsts.exit: ; preds = %17, %19
  %.sroa.011.0 = phi double [ %.sroa.011.0.copyload, %17 ], [ %21, %19 ]
  %.sroa.5.0 = phi double [ %.sroa.5.0.copyload, %17 ], [ %20, %19 ]
  call void @llvm.lifetime.end.p0(i64 24, ptr nonnull %5)
  call void @llvm.lifetime.end.p0(i64 24, ptr nonnull %7)
  %.fca.0.insert = insertvalue { double, double } poison, double %.sroa.011.0, 0
  %.fca.1.insert = insertvalue { double, double } %.fca.0.insert, double %.sroa.5.0, 1
  ret { double, double } %.fca.1.insert
}